target datalayout = "e-m:e-p270:32:32-p271:32:32-p272:64:64-i64:64-i128:128-f80:128-n8:16:32:64-S128"
target triple = "x86_64-pc-linux-gnu"

%struct.plic_context_t = type <{ ptr, i8, i8, [2 x i8], [32 x i32], [32 x i32], [1024 x i8], [32 x i32], [4 x i8] }>

; Function Attrs: mustprogress nounwind uwtable
define noundef zeroext i1 @_ZN6plic_t12context_readEP14plic_context_tmPj(ptr noundef nonnull align 8 dereferenceable(1204) %0, ptr noundef %1, i64 noundef %2, ptr noundef %3) #6 align 2 {
  %5 = alloca i1, align 1
  %6 = alloca ptr, align 8
  %7 = alloca ptr, align 8
  %8 = alloca i64, align 8
  %9 = alloca ptr, align 8
  store ptr %0, ptr %6, align 8, !tbaa !3
  store ptr %1, ptr %7, align 8, !tbaa !46
  store i64 %2, ptr %8, align 8, !tbaa !61
  store ptr %3, ptr %9, align 8, !tbaa !65
  %10 = load ptr, ptr %6, align 8
  %11 = load i64, ptr %8, align 8, !tbaa !61
  switch i64 %11, label %22 [
    i64 0, label %12
    i64 4, label %18
  ]

12:                                               ; preds = %4
  %13 = load ptr, ptr %7, align 8, !tbaa !46
  %14 = getelementptr inbounds nuw %struct.plic_context_t, ptr %13, i32 0, i32 2
  %15 = load i8, ptr %14, align 1, !tbaa !54
  %16 = zext i8 %15 to i32
  %17 = load ptr, ptr %9, align 8, !tbaa !65
  store i32 %16, ptr %17, align 4, !tbaa !10
  store i1 true, ptr %5, align 1
  br label %23

18:                                               ; preds = %4
  %19 = load ptr, ptr %7, align 8, !tbaa !46
  %20 = call noundef i32 @_ZN6plic_t13context_claimEP14plic_context_t(ptr noundef nonnull align 8 dereferenceable(1204) %10, ptr noundef %19)
  %21 = load ptr, ptr %9, align 8, !tbaa !65
  store i32 %20, ptr %21, align 4, !tbaa !10
  store i1 true, ptr %5, align 1
  br label %23

22:                                               ; preds = %4
  store i1 true, ptr %5, align 1
  br label %23

23:                                               ; preds = %22, %18, %12
  %24 = load i1, ptr %5, align 1
  ret i1 %24
}