; Function Attrs: mustprogress nounwind uwtable
define noundef zeroext i1 @_ZN6plic_t12context_readEP14plic_context_tmPj(ptr noundef nonnull readonly align 8 captures(none) dereferenceable(1204) %0, ptr noundef captures(none) %1, i64 noundef %2, ptr noundef writeonly captures(none) %3) local_unnamed_addr #7 align 2 {
  switch i64 %2, label %11 [
    i64 0, label %5
    i64 4, label %9
  ]

5:                                                ; preds = %4
  %6 = getelementptr inbounds nuw i8, ptr %1, i64 9
  %7 = load i8, ptr %6, align 1, !tbaa !51
  %8 = zext i8 %7 to i32
  br label %.sink.split

9:                                                ; preds = %4
  %10 = tail call noundef i32 @_ZN6plic_t13context_claimEP14plic_context_t(ptr noundef nonnull align 8 dereferenceable(1204) %0, ptr noundef %1)
  br label %.sink.split

.sink.split:                                      ; preds = %5, %9
  %.sink = phi i32 [ %10, %9 ], [ %8, %5 ]
  store i32 %.sink, ptr %3, align 4, !tbaa !53
  br label %11

11:                                               ; preds = %.sink.split, %4
  ret i1 true
}